
3d726802521a9ce2b24e2c3baf039915e48ad056:     file format elf32-i386


Disassembly of section .init:

080483b4 <_init>:
 80483b4:	53                   	push   %ebx
 80483b5:	83 ec 08             	sub    $0x8,%esp
 80483b8:	e8 e3 00 00 00       	call   80484a0 <__x86.get_pc_thunk.bx>
 80483bd:	81 c3 43 1c 00 00    	add    $0x1c43,%ebx
 80483c3:	8b 83 fc ff ff ff    	mov    -0x4(%ebx),%eax
 80483c9:	85 c0                	test   %eax,%eax
 80483cb:	74 05                	je     80483d2 <_init+0x1e>
 80483cd:	e8 5e 00 00 00       	call   8048430 <__gmon_start__@plt>
 80483d2:	83 c4 08             	add    $0x8,%esp
 80483d5:	5b                   	pop    %ebx
 80483d6:	c3                   	ret    

Disassembly of section .plt:

080483e0 <fflush@plt-0x10>:
 80483e0:	ff 35 04 a0 04 08    	pushl  0x804a004
 80483e6:	ff 25 08 a0 04 08    	jmp    *0x804a008
 80483ec:	00 00                	add    %al,(%eax)
	...

080483f0 <fflush@plt>:
 80483f0:	ff 25 0c a0 04 08    	jmp    *0x804a00c
 80483f6:	68 00 00 00 00       	push   $0x0
 80483fb:	e9 e0 ff ff ff       	jmp    80483e0 <_init+0x2c>

08048400 <fgets@plt>:
 8048400:	ff 25 10 a0 04 08    	jmp    *0x804a010
 8048406:	68 08 00 00 00       	push   $0x8
 804840b:	e9 d0 ff ff ff       	jmp    80483e0 <_init+0x2c>

08048410 <fclose@plt>:
 8048410:	ff 25 14 a0 04 08    	jmp    *0x804a014
 8048416:	68 10 00 00 00       	push   $0x10
 804841b:	e9 c0 ff ff ff       	jmp    80483e0 <_init+0x2c>

08048420 <puts@plt>:
 8048420:	ff 25 18 a0 04 08    	jmp    *0x804a018
 8048426:	68 18 00 00 00       	push   $0x18
 804842b:	e9 b0 ff ff ff       	jmp    80483e0 <_init+0x2c>

08048430 <__gmon_start__@plt>:
 8048430:	ff 25 1c a0 04 08    	jmp    *0x804a01c
 8048436:	68 20 00 00 00       	push   $0x20
 804843b:	e9 a0 ff ff ff       	jmp    80483e0 <_init+0x2c>

08048440 <__libc_start_main@plt>:
 8048440:	ff 25 20 a0 04 08    	jmp    *0x804a020
 8048446:	68 28 00 00 00       	push   $0x28
 804844b:	e9 90 ff ff ff       	jmp    80483e0 <_init+0x2c>

08048450 <fopen@plt>:
 8048450:	ff 25 24 a0 04 08    	jmp    *0x804a024
 8048456:	68 30 00 00 00       	push   $0x30
 804845b:	e9 80 ff ff ff       	jmp    80483e0 <_init+0x2c>

08048460 <__isoc99_scanf@plt>:
 8048460:	ff 25 28 a0 04 08    	jmp    *0x804a028
 8048466:	68 38 00 00 00       	push   $0x38
 804846b:	e9 70 ff ff ff       	jmp    80483e0 <_init+0x2c>

Disassembly of section .text:

08048470 <_start>:
 8048470:	31 ed                	xor    %ebp,%ebp
 8048472:	5e                   	pop    %esi
 8048473:	89 e1                	mov    %esp,%ecx
 8048475:	83 e4 f0             	and    $0xfffffff0,%esp
 8048478:	50                   	push   %eax
 8048479:	54                   	push   %esp
 804847a:	52                   	push   %edx
 804847b:	68 80 86 04 08       	push   $0x8048680
 8048480:	68 10 86 04 08       	push   $0x8048610
 8048485:	51                   	push   %ecx
 8048486:	56                   	push   %esi
 8048487:	68 c9 85 04 08       	push   $0x80485c9
 804848c:	e8 af ff ff ff       	call   8048440 <__libc_start_main@plt>
 8048491:	f4                   	hlt    
 8048492:	66 90                	xchg   %ax,%ax
 8048494:	66 90                	xchg   %ax,%ax
 8048496:	66 90                	xchg   %ax,%ax
 8048498:	66 90                	xchg   %ax,%ax
 804849a:	66 90                	xchg   %ax,%ax
 804849c:	66 90                	xchg   %ax,%ax
 804849e:	66 90                	xchg   %ax,%ax

080484a0 <__x86.get_pc_thunk.bx>:
 80484a0:	8b 1c 24             	mov    (%esp),%ebx
 80484a3:	c3                   	ret    
 80484a4:	66 90                	xchg   %ax,%ax
 80484a6:	66 90                	xchg   %ax,%ax
 80484a8:	66 90                	xchg   %ax,%ax
 80484aa:	66 90                	xchg   %ax,%ax
 80484ac:	66 90                	xchg   %ax,%ax
 80484ae:	66 90                	xchg   %ax,%ax

080484b0 <deregister_tm_clones>:
 80484b0:	b8 37 a0 04 08       	mov    $0x804a037,%eax
 80484b5:	2d 34 a0 04 08       	sub    $0x804a034,%eax
 80484ba:	83 f8 06             	cmp    $0x6,%eax
 80484bd:	77 01                	ja     80484c0 <deregister_tm_clones+0x10>
 80484bf:	c3                   	ret    
 80484c0:	b8 00 00 00 00       	mov    $0x0,%eax
 80484c5:	85 c0                	test   %eax,%eax
 80484c7:	74 f6                	je     80484bf <deregister_tm_clones+0xf>
 80484c9:	55                   	push   %ebp
 80484ca:	89 e5                	mov    %esp,%ebp
 80484cc:	83 ec 18             	sub    $0x18,%esp
 80484cf:	c7 04 24 34 a0 04 08 	movl   $0x804a034,(%esp)
 80484d6:	ff d0                	call   *%eax
 80484d8:	c9                   	leave  
 80484d9:	c3                   	ret    
 80484da:	8d b6 00 00 00 00    	lea    0x0(%esi),%esi

080484e0 <register_tm_clones>:
 80484e0:	b8 34 a0 04 08       	mov    $0x804a034,%eax
 80484e5:	2d 34 a0 04 08       	sub    $0x804a034,%eax
 80484ea:	c1 f8 02             	sar    $0x2,%eax
 80484ed:	89 c2                	mov    %eax,%edx
 80484ef:	c1 ea 1f             	shr    $0x1f,%edx
 80484f2:	01 d0                	add    %edx,%eax
 80484f4:	d1 f8                	sar    %eax
 80484f6:	75 01                	jne    80484f9 <register_tm_clones+0x19>
 80484f8:	c3                   	ret    
 80484f9:	ba 00 00 00 00       	mov    $0x0,%edx
 80484fe:	85 d2                	test   %edx,%edx
 8048500:	74 f6                	je     80484f8 <register_tm_clones+0x18>
 8048502:	55                   	push   %ebp
 8048503:	89 e5                	mov    %esp,%ebp
 8048505:	83 ec 18             	sub    $0x18,%esp
 8048508:	89 44 24 04          	mov    %eax,0x4(%esp)
 804850c:	c7 04 24 34 a0 04 08 	movl   $0x804a034,(%esp)
 8048513:	ff d2                	call   *%edx
 8048515:	c9                   	leave  
 8048516:	c3                   	ret    
 8048517:	89 f6                	mov    %esi,%esi
 8048519:	8d bc 27 00 00 00 00 	lea    0x0(%edi,%eiz,1),%edi

08048520 <__do_global_dtors_aux>:
 8048520:	80 3d 44 a0 04 08 00 	cmpb   $0x0,0x804a044
 8048527:	75 13                	jne    804853c <__do_global_dtors_aux+0x1c>
 8048529:	55                   	push   %ebp
 804852a:	89 e5                	mov    %esp,%ebp
 804852c:	83 ec 08             	sub    $0x8,%esp
 804852f:	e8 7c ff ff ff       	call   80484b0 <deregister_tm_clones>
 8048534:	c6 05 44 a0 04 08 01 	movb   $0x1,0x804a044
 804853b:	c9                   	leave  
 804853c:	f3 c3                	repz ret 
 804853e:	66 90                	xchg   %ax,%ax

08048540 <frame_dummy>:
 8048540:	a1 10 9f 04 08       	mov    0x8049f10,%eax
 8048545:	85 c0                	test   %eax,%eax
 8048547:	74 1f                	je     8048568 <frame_dummy+0x28>
 8048549:	b8 00 00 00 00       	mov    $0x0,%eax
 804854e:	85 c0                	test   %eax,%eax
 8048550:	74 16                	je     8048568 <frame_dummy+0x28>
 8048552:	55                   	push   %ebp
 8048553:	89 e5                	mov    %esp,%ebp
 8048555:	83 ec 18             	sub    $0x18,%esp
 8048558:	c7 04 24 10 9f 04 08 	movl   $0x8049f10,(%esp)
 804855f:	ff d0                	call   *%eax
 8048561:	c9                   	leave  
 8048562:	e9 79 ff ff ff       	jmp    80484e0 <register_tm_clones>
 8048567:	90                   	nop
 8048568:	e9 73 ff ff ff       	jmp    80484e0 <register_tm_clones>

0804856d <printFlag>:
 804856d:	55                   	push   %ebp
 804856e:	89 e5                	mov    %esp,%ebp
 8048570:	83 ec 58             	sub    $0x58,%esp
 8048573:	c7 44 24 04 a0 86 04 	movl   $0x80486a0,0x4(%esp)
 804857a:	08 
 804857b:	c7 04 24 a2 86 04 08 	movl   $0x80486a2,(%esp)
 8048582:	e8 c9 fe ff ff       	call   8048450 <fopen@plt>
 8048587:	89 45 f4             	mov    %eax,-0xc(%ebp)
 804858a:	8b 45 f4             	mov    -0xc(%ebp),%eax
 804858d:	89 44 24 08          	mov    %eax,0x8(%esp)
 8048591:	c7 44 24 04 32 00 00 	movl   $0x32,0x4(%esp)
 8048598:	00 
 8048599:	8d 45 c2             	lea    -0x3e(%ebp),%eax
 804859c:	89 04 24             	mov    %eax,(%esp)
 804859f:	e8 5c fe ff ff       	call   8048400 <fgets@plt>
 80485a4:	8d 45 c2             	lea    -0x3e(%ebp),%eax
 80485a7:	89 04 24             	mov    %eax,(%esp)
 80485aa:	e8 71 fe ff ff       	call   8048420 <puts@plt>
 80485af:	a1 40 a0 04 08       	mov    0x804a040,%eax
 80485b4:	89 04 24             	mov    %eax,(%esp)
 80485b7:	e8 34 fe ff ff       	call   80483f0 <fflush@plt>
 80485bc:	8b 45 f4             	mov    -0xc(%ebp),%eax
 80485bf:	89 04 24             	mov    %eax,(%esp)
 80485c2:	e8 49 fe ff ff       	call   8048410 <fclose@plt>
 80485c7:	c9                   	leave  
 80485c8:	c3                   	ret    

080485c9 <main>:
 80485c9:	55                   	push   %ebp
 80485ca:	89 e5                	mov    %esp,%ebp
 80485cc:	83 e4 f0             	and    $0xfffffff0,%esp
 80485cf:	83 ec 20             	sub    $0x20,%esp
 80485d2:	c7 04 24 ac 86 04 08 	movl   $0x80486ac,(%esp)
 80485d9:	e8 42 fe ff ff       	call   8048420 <puts@plt>
 80485de:	8d 44 24 14          	lea    0x14(%esp),%eax
 80485e2:	89 44 24 04          	mov    %eax,0x4(%esp)
 80485e6:	c7 04 24 d8 86 04 08 	movl   $0x80486d8,(%esp)
 80485ed:	e8 6e fe ff ff       	call   8048460 <__isoc99_scanf@plt>
 80485f2:	c7 04 24 db 86 04 08 	movl   $0x80486db,(%esp)
 80485f9:	e8 22 fe ff ff       	call   8048420 <puts@plt>
 80485fe:	b8 00 00 00 00       	mov    $0x0,%eax
 8048603:	c9                   	leave  
 8048604:	c3                   	ret    
 8048605:	66 90                	xchg   %ax,%ax
 8048607:	66 90                	xchg   %ax,%ax
 8048609:	66 90                	xchg   %ax,%ax
 804860b:	66 90                	xchg   %ax,%ax
 804860d:	66 90                	xchg   %ax,%ax
 804860f:	90                   	nop

08048610 <__libc_csu_init>:
 8048610:	55                   	push   %ebp
 8048611:	57                   	push   %edi
 8048612:	31 ff                	xor    %edi,%edi
 8048614:	56                   	push   %esi
 8048615:	53                   	push   %ebx
 8048616:	e8 85 fe ff ff       	call   80484a0 <__x86.get_pc_thunk.bx>
 804861b:	81 c3 e5 19 00 00    	add    $0x19e5,%ebx
 8048621:	83 ec 1c             	sub    $0x1c,%esp
 8048624:	8b 6c 24 30          	mov    0x30(%esp),%ebp
 8048628:	8d b3 0c ff ff ff    	lea    -0xf4(%ebx),%esi
 804862e:	e8 81 fd ff ff       	call   80483b4 <_init>
 8048633:	8d 83 08 ff ff ff    	lea    -0xf8(%ebx),%eax
 8048639:	29 c6                	sub    %eax,%esi
 804863b:	c1 fe 02             	sar    $0x2,%esi
 804863e:	85 f6                	test   %esi,%esi
 8048640:	74 27                	je     8048669 <__libc_csu_init+0x59>
 8048642:	8d b6 00 00 00 00    	lea    0x0(%esi),%esi
 8048648:	8b 44 24 38          	mov    0x38(%esp),%eax
 804864c:	89 2c 24             	mov    %ebp,(%esp)
 804864f:	89 44 24 08          	mov    %eax,0x8(%esp)
 8048653:	8b 44 24 34          	mov    0x34(%esp),%eax
 8048657:	89 44 24 04          	mov    %eax,0x4(%esp)
 804865b:	ff 94 bb 08 ff ff ff 	call   *-0xf8(%ebx,%edi,4)
 8048662:	83 c7 01             	add    $0x1,%edi
 8048665:	39 f7                	cmp    %esi,%edi
 8048667:	75 df                	jne    8048648 <__libc_csu_init+0x38>
 8048669:	83 c4 1c             	add    $0x1c,%esp
 804866c:	5b                   	pop    %ebx
 804866d:	5e                   	pop    %esi
 804866e:	5f                   	pop    %edi
 804866f:	5d                   	pop    %ebp
 8048670:	c3                   	ret    
 8048671:	eb 0d                	jmp    8048680 <__libc_csu_fini>
 8048673:	90                   	nop
 8048674:	90                   	nop
 8048675:	90                   	nop
 8048676:	90                   	nop
 8048677:	90                   	nop
 8048678:	90                   	nop
 8048679:	90                   	nop
 804867a:	90                   	nop
 804867b:	90                   	nop
 804867c:	90                   	nop
 804867d:	90                   	nop
 804867e:	90                   	nop
 804867f:	90                   	nop

08048680 <__libc_csu_fini>:
 8048680:	f3 c3                	repz ret 

Disassembly of section .fini:

08048684 <_fini>:
 8048684:	53                   	push   %ebx
 8048685:	83 ec 08             	sub    $0x8,%esp
 8048688:	e8 13 fe ff ff       	call   80484a0 <__x86.get_pc_thunk.bx>
 804868d:	81 c3 73 19 00 00    	add    $0x1973,%ebx
 8048693:	83 c4 08             	add    $0x8,%esp
 8048696:	5b                   	pop    %ebx
 8048697:	c3                   	ret    
