
bleed_client:     file format elf64-x86-64


Disassembly of section .init:

0000000000000940 <.init>:
 940:	48 83 ec 08          	sub    $0x8,%rsp
 944:	48 8b 05 5d 16 20 00 	mov    0x20165d(%rip),%rax        # 201fa8 <error@@Base+0x201478>
 94b:	48 85 c0             	test   %rax,%rax
 94e:	74 02                	je     952 <error@@Base-0x1de>
 950:	ff d0                	callq  *%rax
 952:	48 83 c4 08          	add    $0x8,%rsp
 956:	c3                   	retq   

Disassembly of section .plt:

0000000000000960 <.plt>:
 960:	ff 35 d2 15 20 00    	pushq  0x2015d2(%rip)        # 201f38 <error@@Base+0x201408>
 966:	ff 25 d4 15 20 00    	jmpq   *0x2015d4(%rip)        # 201f40 <error@@Base+0x201410>
 96c:	0f 1f 40 00          	nopl   0x0(%rax)

Disassembly of section .plt.got:

0000000000000970 <.plt.got>:
 970:	ff 25 da 15 20 00    	jmpq   *0x2015da(%rip)        # 201f50 <error@@Base+0x201420>
 976:	66 90                	xchg   %ax,%ax
 978:	ff 25 da 15 20 00    	jmpq   *0x2015da(%rip)        # 201f58 <error@@Base+0x201428>
 97e:	66 90                	xchg   %ax,%ax
 980:	ff 25 da 15 20 00    	jmpq   *0x2015da(%rip)        # 201f60 <error@@Base+0x201430>
 986:	66 90                	xchg   %ax,%ax
 988:	ff 25 da 15 20 00    	jmpq   *0x2015da(%rip)        # 201f68 <error@@Base+0x201438>
 98e:	66 90                	xchg   %ax,%ax
 990:	ff 25 da 15 20 00    	jmpq   *0x2015da(%rip)        # 201f70 <error@@Base+0x201440>
 996:	66 90                	xchg   %ax,%ax
 998:	ff 25 da 15 20 00    	jmpq   *0x2015da(%rip)        # 201f78 <error@@Base+0x201448>
 99e:	66 90                	xchg   %ax,%ax
 9a0:	ff 25 da 15 20 00    	jmpq   *0x2015da(%rip)        # 201f80 <error@@Base+0x201450>
 9a6:	66 90                	xchg   %ax,%ax
 9a8:	ff 25 da 15 20 00    	jmpq   *0x2015da(%rip)        # 201f88 <error@@Base+0x201458>
 9ae:	66 90                	xchg   %ax,%ax
 9b0:	ff 25 e2 15 20 00    	jmpq   *0x2015e2(%rip)        # 201f98 <error@@Base+0x201468>
 9b6:	66 90                	xchg   %ax,%ax
 9b8:	ff 25 e2 15 20 00    	jmpq   *0x2015e2(%rip)        # 201fa0 <error@@Base+0x201470>
 9be:	66 90                	xchg   %ax,%ax
 9c0:	ff 25 ea 15 20 00    	jmpq   *0x2015ea(%rip)        # 201fb0 <error@@Base+0x201480>
 9c6:	66 90                	xchg   %ax,%ax
 9c8:	ff 25 ea 15 20 00    	jmpq   *0x2015ea(%rip)        # 201fb8 <error@@Base+0x201488>
 9ce:	66 90                	xchg   %ax,%ax
 9d0:	ff 25 ea 15 20 00    	jmpq   *0x2015ea(%rip)        # 201fc0 <error@@Base+0x201490>
 9d6:	66 90                	xchg   %ax,%ax
 9d8:	ff 25 f2 15 20 00    	jmpq   *0x2015f2(%rip)        # 201fd0 <error@@Base+0x2014a0>
 9de:	66 90                	xchg   %ax,%ax
 9e0:	ff 25 f2 15 20 00    	jmpq   *0x2015f2(%rip)        # 201fd8 <error@@Base+0x2014a8>
 9e6:	66 90                	xchg   %ax,%ax
 9e8:	ff 25 f2 15 20 00    	jmpq   *0x2015f2(%rip)        # 201fe0 <error@@Base+0x2014b0>
 9ee:	66 90                	xchg   %ax,%ax
 9f0:	ff 25 fa 15 20 00    	jmpq   *0x2015fa(%rip)        # 201ff0 <error@@Base+0x2014c0>
 9f6:	66 90                	xchg   %ax,%ax
 9f8:	ff 25 fa 15 20 00    	jmpq   *0x2015fa(%rip)        # 201ff8 <error@@Base+0x2014c8>
 9fe:	66 90                	xchg   %ax,%ax

Disassembly of section .text:

0000000000000a00 <error@@Base-0x130>:
 a00:	31 ed                	xor    %ebp,%ebp
 a02:	49 89 d1             	mov    %rdx,%r9
 a05:	5e                   	pop    %rsi
 a06:	48 89 e2             	mov    %rsp,%rdx
 a09:	48 83 e4 f0          	and    $0xfffffffffffffff0,%rsp
 a0d:	50                   	push   %rax
 a0e:	54                   	push   %rsp
 a0f:	4c 8d 05 da 05 00 00 	lea    0x5da(%rip),%r8        # ff0 <error@@Base+0x4c0>
 a16:	48 8d 0d 63 05 00 00 	lea    0x563(%rip),%rcx        # f80 <error@@Base+0x450>
 a1d:	48 8d 3d 2e 01 00 00 	lea    0x12e(%rip),%rdi        # b52 <error@@Base+0x22>
 a24:	ff 15 66 15 20 00    	callq  *0x201566(%rip)        # 201f90 <error@@Base+0x201460>
 a2a:	f4                   	hlt    
 a2b:	0f 1f 44 00 00       	nopl   0x0(%rax,%rax,1)
 a30:	48 8d 3d d9 15 20 00 	lea    0x2015d9(%rip),%rdi        # 202010 <stdin@@GLIBC_2.2.5>
 a37:	48 8d 05 d9 15 20 00 	lea    0x2015d9(%rip),%rax        # 202017 <stdin@@GLIBC_2.2.5+0x7>
 a3e:	55                   	push   %rbp
 a3f:	48 29 f8             	sub    %rdi,%rax
 a42:	48 89 e5             	mov    %rsp,%rbp
 a45:	48 83 f8 0e          	cmp    $0xe,%rax
 a49:	76 15                	jbe    a60 <error@@Base-0xd0>
 a4b:	48 8b 05 f6 14 20 00 	mov    0x2014f6(%rip),%rax        # 201f48 <error@@Base+0x201418>
 a52:	48 85 c0             	test   %rax,%rax
 a55:	74 09                	je     a60 <error@@Base-0xd0>
 a57:	5d                   	pop    %rbp
 a58:	ff e0                	jmpq   *%rax
 a5a:	66 0f 1f 44 00 00    	nopw   0x0(%rax,%rax,1)
 a60:	5d                   	pop    %rbp
 a61:	c3                   	retq   
 a62:	0f 1f 40 00          	nopl   0x0(%rax)
 a66:	66 2e 0f 1f 84 00 00 	nopw   %cs:0x0(%rax,%rax,1)
 a6d:	00 00 00 
 a70:	48 8d 3d 99 15 20 00 	lea    0x201599(%rip),%rdi        # 202010 <stdin@@GLIBC_2.2.5>
 a77:	48 8d 35 92 15 20 00 	lea    0x201592(%rip),%rsi        # 202010 <stdin@@GLIBC_2.2.5>
 a7e:	55                   	push   %rbp
 a7f:	48 29 fe             	sub    %rdi,%rsi
 a82:	48 89 e5             	mov    %rsp,%rbp
 a85:	48 c1 fe 03          	sar    $0x3,%rsi
 a89:	48 89 f0             	mov    %rsi,%rax
 a8c:	48 c1 e8 3f          	shr    $0x3f,%rax
 a90:	48 01 c6             	add    %rax,%rsi
 a93:	48 d1 fe             	sar    %rsi
 a96:	74 18                	je     ab0 <error@@Base-0x80>
 a98:	48 8b 05 49 15 20 00 	mov    0x201549(%rip),%rax        # 201fe8 <error@@Base+0x2014b8>
 a9f:	48 85 c0             	test   %rax,%rax
 aa2:	74 0c                	je     ab0 <error@@Base-0x80>
 aa4:	5d                   	pop    %rbp
 aa5:	ff e0                	jmpq   *%rax
 aa7:	66 0f 1f 84 00 00 00 	nopw   0x0(%rax,%rax,1)
 aae:	00 00 
 ab0:	5d                   	pop    %rbp
 ab1:	c3                   	retq   
 ab2:	0f 1f 40 00          	nopl   0x0(%rax)
 ab6:	66 2e 0f 1f 84 00 00 	nopw   %cs:0x0(%rax,%rax,1)
 abd:	00 00 00 
 ac0:	80 3d 51 15 20 00 00 	cmpb   $0x0,0x201551(%rip)        # 202018 <stdin@@GLIBC_2.2.5+0x8>
 ac7:	75 27                	jne    af0 <error@@Base-0x40>
 ac9:	48 83 3d 1f 15 20 00 	cmpq   $0x0,0x20151f(%rip)        # 201ff0 <error@@Base+0x2014c0>
 ad0:	00 
 ad1:	55                   	push   %rbp
 ad2:	48 89 e5             	mov    %rsp,%rbp
 ad5:	74 0c                	je     ae3 <error@@Base-0x4d>
 ad7:	48 8b 3d 2a 15 20 00 	mov    0x20152a(%rip),%rdi        # 202008 <error@@Base+0x2014d8>
 ade:	e8 0d ff ff ff       	callq  9f0 <error@@Base-0x140>
 ae3:	e8 48 ff ff ff       	callq  a30 <error@@Base-0x100>
 ae8:	5d                   	pop    %rbp
 ae9:	c6 05 28 15 20 00 01 	movb   $0x1,0x201528(%rip)        # 202018 <stdin@@GLIBC_2.2.5+0x8>
 af0:	f3 c3                	repz retq 
 af2:	0f 1f 40 00          	nopl   0x0(%rax)
 af6:	66 2e 0f 1f 84 00 00 	nopw   %cs:0x0(%rax,%rax,1)
 afd:	00 00 00 
 b00:	48 8d 3d 61 12 20 00 	lea    0x201261(%rip),%rdi        # 201d68 <error@@Base+0x201238>
 b07:	48 83 3f 00          	cmpq   $0x0,(%rdi)
 b0b:	75 0b                	jne    b18 <error@@Base-0x18>
 b0d:	e9 5e ff ff ff       	jmpq   a70 <error@@Base-0xc0>
 b12:	66 0f 1f 44 00 00    	nopw   0x0(%rax,%rax,1)
 b18:	48 8b 05 a9 14 20 00 	mov    0x2014a9(%rip),%rax        # 201fc8 <error@@Base+0x201498>
 b1f:	48 85 c0             	test   %rax,%rax
 b22:	74 e9                	je     b0d <error@@Base-0x23>
 b24:	55                   	push   %rbp
 b25:	48 89 e5             	mov    %rsp,%rbp
 b28:	ff d0                	callq  *%rax
 b2a:	5d                   	pop    %rbp
 b2b:	e9 40 ff ff ff       	jmpq   a70 <error@@Base-0xc0>

0000000000000b30 <error@@Base>:
 b30:	55                   	push   %rbp
 b31:	48 89 e5             	mov    %rsp,%rbp
 b34:	48 83 ec 10          	sub    $0x10,%rsp
 b38:	48 89 7d f8          	mov    %rdi,-0x8(%rbp)
 b3c:	48 8b 45 f8          	mov    -0x8(%rbp),%rax
 b40:	48 89 c7             	mov    %rax,%rdi
 b43:	e8 28 fe ff ff       	callq  970 <error@@Base-0x1c0>
 b48:	bf 00 00 00 00       	mov    $0x0,%edi
 b4d:	e8 8e fe ff ff       	callq  9e0 <error@@Base-0x150>
 b52:	55                   	push   %rbp
 b53:	48 89 e5             	mov    %rsp,%rbp
 b56:	41 57                	push   %r15
 b58:	41 56                	push   %r14
 b5a:	41 55                	push   %r13
 b5c:	41 54                	push   %r12
 b5e:	53                   	push   %rbx
 b5f:	48 81 ec e8 06 00 00 	sub    $0x6e8,%rsp
 b66:	89 bd fc f8 ff ff    	mov    %edi,-0x704(%rbp)
 b6c:	48 89 b5 f0 f8 ff ff 	mov    %rsi,-0x710(%rbp)
 b73:	64 48 8b 04 25 28 00 	mov    %fs:0x28,%rax
 b7a:	00 00 
 b7c:	48 89 45 c8          	mov    %rax,-0x38(%rbp)
 b80:	31 c0                	xor    %eax,%eax
 b82:	48 89 e0             	mov    %rsp,%rax
 b85:	48 89 c3             	mov    %rax,%rbx
 b88:	83 bd fc f8 ff ff 02 	cmpl   $0x2,-0x704(%rbp)
 b8f:	7f 0c                	jg     b9d <error@@Base+0x6d>
 b91:	48 8d 3d 70 04 00 00 	lea    0x470(%rip),%rdi        # 1008 <error@@Base+0x4d8>
 b98:	e8 93 ff ff ff       	callq  b30 <error@@Base>
 b9d:	48 8b 85 f0 f8 ff ff 	mov    -0x710(%rbp),%rax
 ba4:	48 83 c0 08          	add    $0x8,%rax
 ba8:	48 8b 00             	mov    (%rax),%rax
 bab:	48 89 c7             	mov    %rax,%rdi
 bae:	e8 05 fe ff ff       	callq  9b8 <error@@Base-0x178>
 bb3:	48 89 85 18 f9 ff ff 	mov    %rax,-0x6e8(%rbp)
 bba:	48 83 bd 18 f9 ff ff 	cmpq   $0x0,-0x6e8(%rbp)
 bc1:	00 
 bc2:	75 0c                	jne    bd0 <error@@Base+0xa0>
 bc4:	48 8d 3d 5c 04 00 00 	lea    0x45c(%rip),%rdi        # 1027 <error@@Base+0x4f7>
 bcb:	e8 60 ff ff ff       	callq  b30 <error@@Base>
 bd0:	48 8b 85 f0 f8 ff ff 	mov    -0x710(%rbp),%rax
 bd7:	48 83 c0 10          	add    $0x10,%rax
 bdb:	48 8b 00             	mov    (%rax),%rax
 bde:	48 89 c7             	mov    %rax,%rdi
 be1:	e8 f2 fd ff ff       	callq  9d8 <error@@Base-0x158>
 be6:	89 85 04 f9 ff ff    	mov    %eax,-0x6fc(%rbp)
 bec:	ba 00 00 00 00       	mov    $0x0,%edx
 bf1:	be 01 00 00 00       	mov    $0x1,%esi
 bf6:	bf 02 00 00 00       	mov    $0x2,%edi
 bfb:	e8 f8 fd ff ff       	callq  9f8 <error@@Base-0x138>
 c00:	89 85 08 f9 ff ff    	mov    %eax,-0x6f8(%rbp)
 c06:	83 bd 08 f9 ff ff 00 	cmpl   $0x0,-0x6f8(%rbp)
 c0d:	79 0c                	jns    c1b <error@@Base+0xeb>
 c0f:	48 8d 3d 25 04 00 00 	lea    0x425(%rip),%rdi        # 103b <error@@Base+0x50b>
 c16:	e8 15 ff ff ff       	callq  b30 <error@@Base>
 c1b:	48 8d 85 30 f9 ff ff 	lea    -0x6d0(%rbp),%rax
 c22:	be 10 00 00 00       	mov    $0x10,%esi
 c27:	48 89 c7             	mov    %rax,%rdi
 c2a:	e8 a1 fd ff ff       	callq  9d0 <error@@Base-0x160>
 c2f:	66 c7 85 30 f9 ff ff 	movw   $0x2,-0x6d0(%rbp)
 c36:	02 00 
 c38:	48 8b 85 18 f9 ff ff 	mov    -0x6e8(%rbp),%rax
 c3f:	8b 40 14             	mov    0x14(%rax),%eax
 c42:	48 63 d0             	movslq %eax,%rdx
 c45:	48 8b 85 18 f9 ff ff 	mov    -0x6e8(%rbp),%rax
 c4c:	48 8b 40 18          	mov    0x18(%rax),%rax
 c50:	48 8b 00             	mov    (%rax),%rax
 c53:	48 8d 8d 30 f9 ff ff 	lea    -0x6d0(%rbp),%rcx
 c5a:	48 83 c1 04          	add    $0x4,%rcx
 c5e:	48 89 ce             	mov    %rcx,%rsi
 c61:	48 89 c7             	mov    %rax,%rdi
 c64:	e8 57 fd ff ff       	callq  9c0 <error@@Base-0x170>
 c69:	8b 85 04 f9 ff ff    	mov    -0x6fc(%rbp),%eax
 c6f:	0f b7 c0             	movzwl %ax,%eax
 c72:	89 c7                	mov    %eax,%edi
 c74:	e8 17 fd ff ff       	callq  990 <error@@Base-0x1a0>
 c79:	66 89 85 32 f9 ff ff 	mov    %ax,-0x6ce(%rbp)
 c80:	48 8d 8d 30 f9 ff ff 	lea    -0x6d0(%rbp),%rcx
 c87:	8b 85 08 f9 ff ff    	mov    -0x6f8(%rbp),%eax
 c8d:	ba 10 00 00 00       	mov    $0x10,%edx
 c92:	48 89 ce             	mov    %rcx,%rsi
 c95:	89 c7                	mov    %eax,%edi
 c97:	e8 4c fd ff ff       	callq  9e8 <error@@Base-0x148>
 c9c:	85 c0                	test   %eax,%eax
 c9e:	79 0c                	jns    cac <error@@Base+0x17c>
 ca0:	48 8d 3d a9 03 00 00 	lea    0x3a9(%rip),%rdi        # 1050 <error@@Base+0x520>
 ca7:	e8 84 fe ff ff       	callq  b30 <error@@Base>
 cac:	48 8d 3d b5 03 00 00 	lea    0x3b5(%rip),%rdi        # 1068 <error@@Base+0x538>
 cb3:	b8 00 00 00 00       	mov    $0x0,%eax
 cb8:	e8 db fc ff ff       	callq  998 <error@@Base-0x198>
 cbd:	48 8d 85 50 f9 ff ff 	lea    -0x6b0(%rbp),%rax
 cc4:	be 00 02 00 00       	mov    $0x200,%esi
 cc9:	48 89 c7             	mov    %rax,%rdi
 ccc:	e8 ff fc ff ff       	callq  9d0 <error@@Base-0x160>
 cd1:	48 8d 85 50 fb ff ff 	lea    -0x4b0(%rbp),%rax
 cd8:	be 0a 02 00 00       	mov    $0x20a,%esi
 cdd:	48 89 c7             	mov    %rax,%rdi
 ce0:	e8 eb fc ff ff       	callq  9d0 <error@@Base-0x160>
 ce5:	48 8b 15 24 13 20 00 	mov    0x201324(%rip),%rdx        # 202010 <stdin@@GLIBC_2.2.5>
 cec:	48 8d 85 50 f9 ff ff 	lea    -0x6b0(%rbp),%rax
 cf3:	be 00 02 00 00       	mov    $0x200,%esi
 cf8:	48 89 c7             	mov    %rax,%rdi
 cfb:	e8 b0 fc ff ff       	callq  9b0 <error@@Base-0x180>
 d00:	48 8d 85 50 f9 ff ff 	lea    -0x6b0(%rbp),%rax
 d07:	48 89 c7             	mov    %rax,%rdi
 d0a:	e8 71 fc ff ff       	callq  980 <error@@Base-0x1b0>
 d0f:	83 e8 01             	sub    $0x1,%eax
 d12:	89 85 0c f9 ff ff    	mov    %eax,-0x6f4(%rbp)
 d18:	8b 85 0c f9 ff ff    	mov    -0x6f4(%rbp),%eax
 d1e:	48 98                	cltq   
 d20:	c6 84 05 50 f9 ff ff 	movb   $0x0,-0x6b0(%rbp,%rax,1)
 d27:	00 
 d28:	48 8d 85 50 fb ff ff 	lea    -0x4b0(%rbp),%rax
 d2f:	c7 00 31 33 33 37    	movl   $0x37333331,(%rax)
 d35:	48 8d 85 50 fb ff ff 	lea    -0x4b0(%rbp),%rax
 d3c:	48 83 c0 04          	add    $0x4,%rax
 d40:	8b 95 0c f9 ff ff    	mov    -0x6f4(%rbp),%edx
 d46:	89 10                	mov    %edx,(%rax)
 d48:	48 8d 85 50 f9 ff ff 	lea    -0x6b0(%rbp),%rax
 d4f:	48 89 c7             	mov    %rax,%rdi
 d52:	e8 29 fc ff ff       	callq  980 <error@@Base-0x1b0>
 d57:	48 89 c2             	mov    %rax,%rdx
 d5a:	48 8d 85 50 fb ff ff 	lea    -0x4b0(%rbp),%rax
 d61:	48 83 c0 08          	add    $0x8,%rax
 d65:	48 8d 8d 50 f9 ff ff 	lea    -0x6b0(%rbp),%rcx
 d6c:	48 89 ce             	mov    %rcx,%rsi
 d6f:	48 89 c7             	mov    %rax,%rdi
 d72:	e8 51 fc ff ff       	callq  9c8 <error@@Base-0x168>
 d77:	48 b8 de ad be ef ca 	movabs $0xbebafecaefbeadde,%rax
 d7e:	fe ba be 
 d81:	48 89 85 40 f9 ff ff 	mov    %rax,-0x6c0(%rbp)
 d88:	48 8d 85 50 f9 ff ff 	lea    -0x6b0(%rbp),%rax
 d8f:	48 89 c7             	mov    %rax,%rdi
 d92:	e8 e9 fb ff ff       	callq  980 <error@@Base-0x1b0>
 d97:	83 c0 0a             	add    $0xa,%eax
 d9a:	89 85 10 f9 ff ff    	mov    %eax,-0x6f0(%rbp)
 da0:	8b 85 10 f9 ff ff    	mov    -0x6f0(%rbp),%eax
 da6:	48 63 d0             	movslq %eax,%rdx
 da9:	48 83 ea 01          	sub    $0x1,%rdx
 dad:	48 89 95 20 f9 ff ff 	mov    %rdx,-0x6e0(%rbp)
 db4:	48 63 d0             	movslq %eax,%rdx
 db7:	49 89 d6             	mov    %rdx,%r14
 dba:	41 bf 00 00 00 00    	mov    $0x0,%r15d
 dc0:	48 63 d0             	movslq %eax,%rdx
 dc3:	49 89 d4             	mov    %rdx,%r12
 dc6:	41 bd 00 00 00 00    	mov    $0x0,%r13d
 dcc:	48 98                	cltq   
 dce:	ba 10 00 00 00       	mov    $0x10,%edx
 dd3:	48 83 ea 01          	sub    $0x1,%rdx
 dd7:	48 01 d0             	add    %rdx,%rax
 dda:	be 10 00 00 00       	mov    $0x10,%esi
 ddf:	ba 00 00 00 00       	mov    $0x0,%edx
 de4:	48 f7 f6             	div    %rsi
 de7:	48 6b c0 10          	imul   $0x10,%rax,%rax
 deb:	48 29 c4             	sub    %rax,%rsp
 dee:	48 89 e0             	mov    %rsp,%rax
 df1:	48 83 c0 00          	add    $0x0,%rax
 df5:	48 89 85 28 f9 ff ff 	mov    %rax,-0x6d8(%rbp)
 dfc:	8b 85 10 f9 ff ff    	mov    -0x6f0(%rbp),%eax
 e02:	48 63 d0             	movslq %eax,%rdx
 e05:	48 8b 85 28 f9 ff ff 	mov    -0x6d8(%rbp),%rax
 e0c:	48 89 d6             	mov    %rdx,%rsi
 e0f:	48 89 c7             	mov    %rax,%rdi
 e12:	e8 b9 fb ff ff       	callq  9d0 <error@@Base-0x160>
 e17:	c7 85 00 f9 ff ff 00 	movl   $0x0,-0x700(%rbp)
 e1e:	00 00 00 
 e21:	eb 48                	jmp    e6b <error@@Base+0x33b>
 e23:	8b 85 00 f9 ff ff    	mov    -0x700(%rbp),%eax
 e29:	99                   	cltd   
 e2a:	c1 ea 1d             	shr    $0x1d,%edx
 e2d:	01 d0                	add    %edx,%eax
 e2f:	83 e0 07             	and    $0x7,%eax
 e32:	29 d0                	sub    %edx,%eax
 e34:	48 98                	cltq   
 e36:	0f b6 94 05 40 f9 ff 	movzbl -0x6c0(%rbp,%rax,1),%edx
 e3d:	ff 
 e3e:	8b 85 00 f9 ff ff    	mov    -0x700(%rbp),%eax
 e44:	48 98                	cltq   
 e46:	0f b6 84 05 50 fb ff 	movzbl -0x4b0(%rbp,%rax,1),%eax
 e4d:	ff 
 e4e:	89 d1                	mov    %edx,%ecx
 e50:	31 c1                	xor    %eax,%ecx
 e52:	48 8b 95 28 f9 ff ff 	mov    -0x6d8(%rbp),%rdx
 e59:	8b 85 00 f9 ff ff    	mov    -0x700(%rbp),%eax
 e5f:	48 98                	cltq   
 e61:	88 0c 02             	mov    %cl,(%rdx,%rax,1)
 e64:	83 85 00 f9 ff ff 01 	addl   $0x1,-0x700(%rbp)
 e6b:	8b 85 00 f9 ff ff    	mov    -0x700(%rbp),%eax
 e71:	3b 85 10 f9 ff ff    	cmp    -0x6f0(%rbp),%eax
 e77:	7c aa                	jl     e23 <error@@Base+0x2f3>
 e79:	8b 85 10 f9 ff ff    	mov    -0x6f0(%rbp),%eax
 e7f:	83 e8 02             	sub    $0x2,%eax
 e82:	48 8b 95 28 f9 ff ff 	mov    -0x6d8(%rbp),%rdx
 e89:	48 98                	cltq   
 e8b:	c6 04 02 0a          	movb   $0xa,(%rdx,%rax,1)
 e8f:	8b 85 10 f9 ff ff    	mov    -0x6f0(%rbp),%eax
 e95:	83 e8 01             	sub    $0x1,%eax
 e98:	48 8b 95 28 f9 ff ff 	mov    -0x6d8(%rbp),%rdx
 e9f:	48 98                	cltq   
 ea1:	c6 04 02 00          	movb   $0x0,(%rdx,%rax,1)
 ea5:	48 8b 85 28 f9 ff ff 	mov    -0x6d8(%rbp),%rax
 eac:	48 89 c7             	mov    %rax,%rdi
 eaf:	e8 cc fa ff ff       	callq  980 <error@@Base-0x1b0>
 eb4:	48 8d 50 01          	lea    0x1(%rax),%rdx
 eb8:	48 8b 8d 28 f9 ff ff 	mov    -0x6d8(%rbp),%rcx
 ebf:	8b 85 08 f9 ff ff    	mov    -0x6f8(%rbp),%eax
 ec5:	48 89 ce             	mov    %rcx,%rsi
 ec8:	89 c7                	mov    %eax,%edi
 eca:	e8 a9 fa ff ff       	callq  978 <error@@Base-0x1b8>
 ecf:	89 85 14 f9 ff ff    	mov    %eax,-0x6ec(%rbp)
 ed5:	83 bd 14 f9 ff ff 00 	cmpl   $0x0,-0x6ec(%rbp)
 edc:	79 0c                	jns    eea <error@@Base+0x3ba>
 ede:	48 8d 3d d1 01 00 00 	lea    0x1d1(%rip),%rdi        # 10b6 <error@@Base+0x586>
 ee5:	e8 46 fc ff ff       	callq  b30 <error@@Base>
 eea:	48 8d 85 60 fd ff ff 	lea    -0x2a0(%rbp),%rax
 ef1:	be 5a 02 00 00       	mov    $0x25a,%esi
 ef6:	48 89 c7             	mov    %rax,%rdi
 ef9:	e8 d2 fa ff ff       	callq  9d0 <error@@Base-0x160>
 efe:	48 8d 8d 60 fd ff ff 	lea    -0x2a0(%rbp),%rcx
 f05:	8b 85 08 f9 ff ff    	mov    -0x6f8(%rbp),%eax
 f0b:	ba 5a 02 00 00       	mov    $0x25a,%edx
 f10:	48 89 ce             	mov    %rcx,%rsi
 f13:	89 c7                	mov    %eax,%edi
 f15:	e8 8e fa ff ff       	callq  9a8 <error@@Base-0x188>
 f1a:	89 85 14 f9 ff ff    	mov    %eax,-0x6ec(%rbp)
 f20:	83 bd 14 f9 ff ff 00 	cmpl   $0x0,-0x6ec(%rbp)
 f27:	79 0c                	jns    f35 <error@@Base+0x405>
 f29:	48 8d 3d 9e 01 00 00 	lea    0x19e(%rip),%rdi        # 10ce <error@@Base+0x59e>
 f30:	e8 fb fb ff ff       	callq  b30 <error@@Base>
 f35:	48 8d 85 60 fd ff ff 	lea    -0x2a0(%rbp),%rax
 f3c:	48 89 c7             	mov    %rax,%rdi
 f3f:	e8 2c fa ff ff       	callq  970 <error@@Base-0x1c0>
 f44:	8b 85 08 f9 ff ff    	mov    -0x6f8(%rbp),%eax
 f4a:	89 c7                	mov    %eax,%edi
 f4c:	e8 4f fa ff ff       	callq  9a0 <error@@Base-0x190>
 f51:	b8 00 00 00 00       	mov    $0x0,%eax
 f56:	48 89 dc             	mov    %rbx,%rsp
 f59:	48 8b 5d c8          	mov    -0x38(%rbp),%rbx
 f5d:	64 48 33 1c 25 28 00 	xor    %fs:0x28,%rbx
 f64:	00 00 
 f66:	74 05                	je     f6d <error@@Base+0x43d>
 f68:	e8 1b fa ff ff       	callq  988 <error@@Base-0x1a8>
 f6d:	48 8d 65 d8          	lea    -0x28(%rbp),%rsp
 f71:	5b                   	pop    %rbx
 f72:	41 5c                	pop    %r12
 f74:	41 5d                	pop    %r13
 f76:	41 5e                	pop    %r14
 f78:	41 5f                	pop    %r15
 f7a:	5d                   	pop    %rbp
 f7b:	c3                   	retq   
 f7c:	0f 1f 40 00          	nopl   0x0(%rax)
 f80:	41 57                	push   %r15
 f82:	41 56                	push   %r14
 f84:	41 89 ff             	mov    %edi,%r15d
 f87:	41 55                	push   %r13
 f89:	41 54                	push   %r12
 f8b:	4c 8d 25 c6 0d 20 00 	lea    0x200dc6(%rip),%r12        # 201d58 <error@@Base+0x201228>
 f92:	55                   	push   %rbp
 f93:	48 8d 2d c6 0d 20 00 	lea    0x200dc6(%rip),%rbp        # 201d60 <error@@Base+0x201230>
 f9a:	53                   	push   %rbx
 f9b:	49 89 f6             	mov    %rsi,%r14
 f9e:	49 89 d5             	mov    %rdx,%r13
 fa1:	4c 29 e5             	sub    %r12,%rbp
 fa4:	48 83 ec 08          	sub    $0x8,%rsp
 fa8:	48 c1 fd 03          	sar    $0x3,%rbp
 fac:	e8 8f f9 ff ff       	callq  940 <error@@Base-0x1f0>
 fb1:	48 85 ed             	test   %rbp,%rbp
 fb4:	74 20                	je     fd6 <error@@Base+0x4a6>
 fb6:	31 db                	xor    %ebx,%ebx
 fb8:	0f 1f 84 00 00 00 00 	nopl   0x0(%rax,%rax,1)
 fbf:	00 
 fc0:	4c 89 ea             	mov    %r13,%rdx
 fc3:	4c 89 f6             	mov    %r14,%rsi
 fc6:	44 89 ff             	mov    %r15d,%edi
 fc9:	41 ff 14 dc          	callq  *(%r12,%rbx,8)
 fcd:	48 83 c3 01          	add    $0x1,%rbx
 fd1:	48 39 dd             	cmp    %rbx,%rbp
 fd4:	75 ea                	jne    fc0 <error@@Base+0x490>
 fd6:	48 83 c4 08          	add    $0x8,%rsp
 fda:	5b                   	pop    %rbx
 fdb:	5d                   	pop    %rbp
 fdc:	41 5c                	pop    %r12
 fde:	41 5d                	pop    %r13
 fe0:	41 5e                	pop    %r14
 fe2:	41 5f                	pop    %r15
 fe4:	c3                   	retq   
 fe5:	90                   	nop
 fe6:	66 2e 0f 1f 84 00 00 	nopw   %cs:0x0(%rax,%rax,1)
 fed:	00 00 00 
 ff0:	f3 c3                	repz retq 

Disassembly of section .fini:

0000000000000ff4 <.fini>:
 ff4:	48 83 ec 08          	sub    $0x8,%rsp
 ff8:	48 83 c4 08          	add    $0x8,%rsp
 ffc:	c3                   	retq   
