
ultrababy:     file format elf64-x86-64


Disassembly of section .init:

0000000000000658 <_init>:
 658:	48 83 ec 08          	sub    $0x8,%rsp
 65c:	48 8b 05 6d 09 20 00 	mov    0x20096d(%rip),%rax        # 200fd0 <_GLOBAL_OFFSET_TABLE_+0x38>
 663:	48 85 c0             	test   %rax,%rax
 666:	74 02                	je     66a <_init+0x12>
 668:	ff d0                	callq  *%rax
 66a:	48 83 c4 08          	add    $0x8,%rsp
 66e:	c3                   	retq   

Disassembly of section .plt:

0000000000000670 <.plt>:
 670:	ff 35 2a 09 20 00    	pushq  0x20092a(%rip)        # 200fa0 <_GLOBAL_OFFSET_TABLE_+0x8>
 676:	ff 25 2c 09 20 00    	jmpq   *0x20092c(%rip)        # 200fa8 <_GLOBAL_OFFSET_TABLE_+0x10>
 67c:	0f 1f 40 00          	nopl   0x0(%rax)

Disassembly of section .plt.got:

0000000000000680 <.plt.got>:
 680:	ff 25 32 09 20 00    	jmpq   *0x200932(%rip)        # 200fb8 <_GLOBAL_OFFSET_TABLE_+0x20>
 686:	66 90                	xchg   %ax,%ax
 688:	ff 25 32 09 20 00    	jmpq   *0x200932(%rip)        # 200fc0 <_GLOBAL_OFFSET_TABLE_+0x28>
 68e:	66 90                	xchg   %ax,%ax
 690:	ff 25 42 09 20 00    	jmpq   *0x200942(%rip)        # 200fd8 <_GLOBAL_OFFSET_TABLE_+0x40>
 696:	66 90                	xchg   %ax,%ax
 698:	ff 25 42 09 20 00    	jmpq   *0x200942(%rip)        # 200fe0 <_GLOBAL_OFFSET_TABLE_+0x48>
 69e:	66 90                	xchg   %ax,%ax
 6a0:	ff 25 52 09 20 00    	jmpq   *0x200952(%rip)        # 200ff8 <_GLOBAL_OFFSET_TABLE_+0x60>
 6a6:	66 90                	xchg   %ax,%ax

Disassembly of section .text:

00000000000006b0 <_start>:
 6b0:	31 ed                	xor    %ebp,%ebp
 6b2:	49 89 d1             	mov    %rdx,%r9
 6b5:	5e                   	pop    %rsi
 6b6:	48 89 e2             	mov    %rsp,%rdx
 6b9:	48 83 e4 f0          	and    $0xfffffffffffffff0,%rsp
 6bd:	50                   	push   %rax
 6be:	54                   	push   %rsp
 6bf:	4c 8d 05 5a 02 00 00 	lea    0x25a(%rip),%r8        # 920 <__libc_csu_fini>
 6c6:	48 8d 0d e3 01 00 00 	lea    0x1e3(%rip),%rcx        # 8b0 <__libc_csu_init>
 6cd:	48 8d 3d 32 01 00 00 	lea    0x132(%rip),%rdi        # 806 <main>
 6d4:	ff 15 ee 08 20 00    	callq  *0x2008ee(%rip)        # 200fc8 <_GLOBAL_OFFSET_TABLE_+0x30>
 6da:	f4                   	hlt    
 6db:	0f 1f 44 00 00       	nopl   0x0(%rax,%rax,1)

00000000000006e0 <deregister_tm_clones>:
 6e0:	48 8d 3d 29 09 20 00 	lea    0x200929(%rip),%rdi        # 201010 <__TMC_END__>
 6e7:	48 8d 05 29 09 20 00 	lea    0x200929(%rip),%rax        # 201017 <__TMC_END__+0x7>
 6ee:	55                   	push   %rbp
 6ef:	48 29 f8             	sub    %rdi,%rax
 6f2:	48 89 e5             	mov    %rsp,%rbp
 6f5:	48 83 f8 0e          	cmp    $0xe,%rax
 6f9:	76 15                	jbe    710 <deregister_tm_clones+0x30>
 6fb:	48 8b 05 ae 08 20 00 	mov    0x2008ae(%rip),%rax        # 200fb0 <_GLOBAL_OFFSET_TABLE_+0x18>
 702:	48 85 c0             	test   %rax,%rax
 705:	74 09                	je     710 <deregister_tm_clones+0x30>
 707:	5d                   	pop    %rbp
 708:	ff e0                	jmpq   *%rax
 70a:	66 0f 1f 44 00 00    	nopw   0x0(%rax,%rax,1)
 710:	5d                   	pop    %rbp
 711:	c3                   	retq   
 712:	0f 1f 40 00          	nopl   0x0(%rax)
 716:	66 2e 0f 1f 84 00 00 	nopw   %cs:0x0(%rax,%rax,1)
 71d:	00 00 00 

0000000000000720 <register_tm_clones>:
 720:	48 8d 3d e9 08 20 00 	lea    0x2008e9(%rip),%rdi        # 201010 <__TMC_END__>
 727:	48 8d 35 e2 08 20 00 	lea    0x2008e2(%rip),%rsi        # 201010 <__TMC_END__>
 72e:	55                   	push   %rbp
 72f:	48 29 fe             	sub    %rdi,%rsi
 732:	48 89 e5             	mov    %rsp,%rbp
 735:	48 c1 fe 03          	sar    $0x3,%rsi
 739:	48 89 f0             	mov    %rsi,%rax
 73c:	48 c1 e8 3f          	shr    $0x3f,%rax
 740:	48 01 c6             	add    %rax,%rsi
 743:	48 d1 fe             	sar    %rsi
 746:	74 18                	je     760 <register_tm_clones+0x40>
 748:	48 8b 05 a1 08 20 00 	mov    0x2008a1(%rip),%rax        # 200ff0 <_GLOBAL_OFFSET_TABLE_+0x58>
 74f:	48 85 c0             	test   %rax,%rax
 752:	74 0c                	je     760 <register_tm_clones+0x40>
 754:	5d                   	pop    %rbp
 755:	ff e0                	jmpq   *%rax
 757:	66 0f 1f 84 00 00 00 	nopw   0x0(%rax,%rax,1)
 75e:	00 00 
 760:	5d                   	pop    %rbp
 761:	c3                   	retq   
 762:	0f 1f 40 00          	nopl   0x0(%rax)
 766:	66 2e 0f 1f 84 00 00 	nopw   %cs:0x0(%rax,%rax,1)
 76d:	00 00 00 

0000000000000770 <__do_global_dtors_aux>:
 770:	80 3d b1 08 20 00 00 	cmpb   $0x0,0x2008b1(%rip)        # 201028 <completed.7558>
 777:	75 27                	jne    7a0 <__do_global_dtors_aux+0x30>
 779:	48 83 3d 77 08 20 00 	cmpq   $0x0,0x200877(%rip)        # 200ff8 <_GLOBAL_OFFSET_TABLE_+0x60>
 780:	00 
 781:	55                   	push   %rbp
 782:	48 89 e5             	mov    %rsp,%rbp
 785:	74 0c                	je     793 <__do_global_dtors_aux+0x23>
 787:	48 8b 3d 7a 08 20 00 	mov    0x20087a(%rip),%rdi        # 201008 <__dso_handle>
 78e:	e8 0d ff ff ff       	callq  6a0 <_init+0x48>
 793:	e8 48 ff ff ff       	callq  6e0 <deregister_tm_clones>
 798:	5d                   	pop    %rbp
 799:	c6 05 88 08 20 00 01 	movb   $0x1,0x200888(%rip)        # 201028 <completed.7558>
 7a0:	f3 c3                	repz retq 
 7a2:	0f 1f 40 00          	nopl   0x0(%rax)
 7a6:	66 2e 0f 1f 84 00 00 	nopw   %cs:0x0(%rax,%rax,1)
 7ad:	00 00 00 

00000000000007b0 <frame_dummy>:
 7b0:	48 8d 3d 19 06 20 00 	lea    0x200619(%rip),%rdi        # 200dd0 <__JCR_END__>
 7b7:	48 83 3f 00          	cmpq   $0x0,(%rdi)
 7bb:	75 0b                	jne    7c8 <frame_dummy+0x18>
 7bd:	e9 5e ff ff ff       	jmpq   720 <register_tm_clones>
 7c2:	66 0f 1f 44 00 00    	nopw   0x0(%rax,%rax,1)
 7c8:	48 8b 05 19 08 20 00 	mov    0x200819(%rip),%rax        # 200fe8 <_GLOBAL_OFFSET_TABLE_+0x50>
 7cf:	48 85 c0             	test   %rax,%rax
 7d2:	74 e9                	je     7bd <frame_dummy+0xd>
 7d4:	55                   	push   %rbp
 7d5:	48 89 e5             	mov    %rsp,%rbp
 7d8:	ff d0                	callq  *%rax
 7da:	5d                   	pop    %rbp
 7db:	e9 40 ff ff ff       	jmpq   720 <register_tm_clones>

00000000000007e0 <Bye>:
 7e0:	55                   	push   %rbp
 7e1:	48 89 e5             	mov    %rsp,%rbp
 7e4:	48 8d 3d 4d 01 00 00 	lea    0x14d(%rip),%rdi        # 938 <_IO_stdin_used+0x8>
 7eb:	e8 90 fe ff ff       	callq  680 <_init+0x28>
 7f0:	90                   	nop
 7f1:	5d                   	pop    %rbp
 7f2:	c3                   	retq   

00000000000007f3 <Flag>:
 7f3:	55                   	push   %rbp
 7f4:	48 89 e5             	mov    %rsp,%rbp
 7f7:	48 8d 3d 42 01 00 00 	lea    0x142(%rip),%rdi        # 940 <_IO_stdin_used+0x10>
 7fe:	e8 7d fe ff ff       	callq  680 <_init+0x28>
 803:	90                   	nop
 804:	5d                   	pop    %rbp
 805:	c3                   	retq   

0000000000000806 <main>:
 806:	55                   	push   %rbp
 807:	48 89 e5             	mov    %rsp,%rbp
 80a:	48 83 ec 20          	sub    $0x20,%rsp
 80e:	48 8d 05 cb ff ff ff 	lea    -0x35(%rip),%rax        # 7e0 <Bye>
 815:	48 89 45 f8          	mov    %rax,-0x8(%rbp)
 819:	48 8b 05 00 08 20 00 	mov    0x200800(%rip),%rax        # 201020 <stdin@@GLIBC_2.2.5>
 820:	b9 00 00 00 00       	mov    $0x0,%ecx
 825:	ba 02 00 00 00       	mov    $0x2,%edx
 82a:	be 00 00 00 00       	mov    $0x0,%esi
 82f:	48 89 c7             	mov    %rax,%rdi
 832:	e8 61 fe ff ff       	callq  698 <_init+0x40>
 837:	48 8b 05 d2 07 20 00 	mov    0x2007d2(%rip),%rax        # 201010 <__TMC_END__>
 83e:	b9 00 00 00 00       	mov    $0x0,%ecx
 843:	ba 02 00 00 00       	mov    $0x2,%edx
 848:	be 00 00 00 00       	mov    $0x0,%esi
 84d:	48 89 c7             	mov    %rax,%rdi
 850:	e8 43 fe ff ff       	callq  698 <_init+0x40>
 855:	48 8d 3d 0c 01 00 00 	lea    0x10c(%rip),%rdi        # 968 <_IO_stdin_used+0x38>
 85c:	e8 1f fe ff ff       	callq  680 <_init+0x28>
 861:	48 8b 05 a8 07 20 00 	mov    0x2007a8(%rip),%rax        # 201010 <__TMC_END__>
 868:	48 89 c7             	mov    %rax,%rdi
 86b:	e8 20 fe ff ff       	callq  690 <_init+0x38>
 870:	48 8d 45 e0          	lea    -0x20(%rbp),%rax
 874:	ba 19 00 00 00       	mov    $0x19,%edx
 879:	48 89 c6             	mov    %rax,%rsi
 87c:	bf 00 00 00 00       	mov    $0x0,%edi
 881:	e8 02 fe ff ff       	callq  688 <_init+0x30>
 886:	48 8b 05 93 07 20 00 	mov    0x200793(%rip),%rax        # 201020 <stdin@@GLIBC_2.2.5>
 88d:	48 89 c7             	mov    %rax,%rdi
 890:	e8 fb fd ff ff       	callq  690 <_init+0x38>
 895:	48 8b 55 f8          	mov    -0x8(%rbp),%rdx
 899:	b8 00 00 00 00       	mov    $0x0,%eax
 89e:	ff d2                	callq  *%rdx
 8a0:	b8 00 00 00 00       	mov    $0x0,%eax
 8a5:	c9                   	leaveq 
 8a6:	c3                   	retq   
 8a7:	66 0f 1f 84 00 00 00 	nopw   0x0(%rax,%rax,1)
 8ae:	00 00 

00000000000008b0 <__libc_csu_init>:
 8b0:	41 57                	push   %r15
 8b2:	41 56                	push   %r14
 8b4:	41 89 ff             	mov    %edi,%r15d
 8b7:	41 55                	push   %r13
 8b9:	41 54                	push   %r12
 8bb:	4c 8d 25 fe 04 20 00 	lea    0x2004fe(%rip),%r12        # 200dc0 <__frame_dummy_init_array_entry>
 8c2:	55                   	push   %rbp
 8c3:	48 8d 2d fe 04 20 00 	lea    0x2004fe(%rip),%rbp        # 200dc8 <__init_array_end>
 8ca:	53                   	push   %rbx
 8cb:	49 89 f6             	mov    %rsi,%r14
 8ce:	49 89 d5             	mov    %rdx,%r13
 8d1:	4c 29 e5             	sub    %r12,%rbp
 8d4:	48 83 ec 08          	sub    $0x8,%rsp
 8d8:	48 c1 fd 03          	sar    $0x3,%rbp
 8dc:	e8 77 fd ff ff       	callq  658 <_init>
 8e1:	48 85 ed             	test   %rbp,%rbp
 8e4:	74 20                	je     906 <__libc_csu_init+0x56>
 8e6:	31 db                	xor    %ebx,%ebx
 8e8:	0f 1f 84 00 00 00 00 	nopl   0x0(%rax,%rax,1)
 8ef:	00 
 8f0:	4c 89 ea             	mov    %r13,%rdx
 8f3:	4c 89 f6             	mov    %r14,%rsi
 8f6:	44 89 ff             	mov    %r15d,%edi
 8f9:	41 ff 14 dc          	callq  *(%r12,%rbx,8)
 8fd:	48 83 c3 01          	add    $0x1,%rbx
 901:	48 39 dd             	cmp    %rbx,%rbp
 904:	75 ea                	jne    8f0 <__libc_csu_init+0x40>
 906:	48 83 c4 08          	add    $0x8,%rsp
 90a:	5b                   	pop    %rbx
 90b:	5d                   	pop    %rbp
 90c:	41 5c                	pop    %r12
 90e:	41 5d                	pop    %r13
 910:	41 5e                	pop    %r14
 912:	41 5f                	pop    %r15
 914:	c3                   	retq   
 915:	90                   	nop
 916:	66 2e 0f 1f 84 00 00 	nopw   %cs:0x0(%rax,%rax,1)
 91d:	00 00 00 

0000000000000920 <__libc_csu_fini>:
 920:	f3 c3                	repz retq 

Disassembly of section .fini:

0000000000000924 <_fini>:
 924:	48 83 ec 08          	sub    $0x8,%rsp
 928:	48 83 c4 08          	add    $0x8,%rsp
 92c:	c3                   	retq   
